target datalayout = "e-m:e-p270:32:32-p271:32:32-p272:64:64-i64:64-i128:128-f80:128-n8:16:32:64-S128"
target triple = "x86_64-pc-linux-gnu"

%struct.KINMemRec = type { ptr, double, ptr, ptr, double, double, i32, i64, i64, i64, i64, i32, i32, i32, i32, i32, i32, i32, i32, double, double, double, double, double, double, double, double, double, i32, double, i64, i64, i64, i64, i64, i64, i64, ptr, ptr, ptr, ptr, ptr, ptr, ptr, ptr, ptr, ptr, ptr, i32, i32, double, ptr, ptr, ptr, ptr, ptr, double, ptr, ptr, ptr, ptr, i64, i64, i32, ptr, ptr, i32, ptr, ptr, i64, i64, i64, i64, ptr, ptr, ptr, ptr, i32, ptr, double, double, double, double, double, i32, double, double, double, i32 }

@.str = private unnamed_addr constant [118 x i8] c"generated/home/dtcxzyw/WorkSpace/Projects/compilers/llvm-opt-benchmark/bench/sundials/sundials/src/kinsol/kinsol_io.c\00", align 1
@.str.1 = private unnamed_addr constant [27 x i8] c"kinsol_mem = NULL illegal.\00", align 1
@__func__.KINSetFuncNormTol = private unnamed_addr constant [18 x i8] c"KINSetFuncNormTol\00", align 1
@.str.17 = private unnamed_addr constant [22 x i8] c"fnormtol < 0 illegal.\00", align 1

; Function Attrs: nounwind uwtable
define i32 @KINSetFuncNormTol(ptr noundef %0, double noundef %1) #0 {
  %3 = alloca i32, align 4
  %4 = alloca ptr, align 8
  %5 = alloca double, align 8
  %6 = alloca ptr, align 8
  %7 = alloca double, align 8
  %8 = alloca i32, align 4
  store ptr %0, ptr %4, align 8, !tbaa !3
  store double %1, ptr %5, align 8, !tbaa !20
  call void @llvm.lifetime.start.p0(i64 8, ptr %6) #5
  call void @llvm.lifetime.start.p0(i64 8, ptr %7) #5
  %9 = load ptr, ptr %4, align 8, !tbaa !3
  %10 = icmp eq ptr %9, null
  br i1 %10, label %11, label %12

11:                                               ; preds = %2
  call void (ptr, i32, i32, ptr, ptr, ptr, ...) @KINProcessError(ptr noundef null, i32 noundef -1, i32 noundef 743, ptr noundef @__func__.KINSetFuncNormTol, ptr noundef @.str, ptr noundef @.str.1)
  store i32 -1, ptr %3, align 4
  store i32 1, ptr %8, align 4
  br label %34

12:                                               ; preds = %2
  %13 = load ptr, ptr %4, align 8, !tbaa !3
  store ptr %13, ptr %6, align 8, !tbaa !7
  %14 = load double, ptr %5, align 8, !tbaa !20
  %15 = fcmp olt double %14, 0.000000e+00
  br i1 %15, label %16, label %18

16:                                               ; preds = %12
  %17 = load ptr, ptr %6, align 8, !tbaa !7
  call void (ptr, i32, i32, ptr, ptr, ptr, ...) @KINProcessError(ptr noundef %17, i32 noundef -2, i32 noundef 751, ptr noundef @__func__.KINSetFuncNormTol, ptr noundef @.str, ptr noundef @.str.17)
  store i32 -2, ptr %3, align 4
  store i32 1, ptr %8, align 4
  br label %34

18:                                               ; preds = %12
  %19 = load double, ptr %5, align 8, !tbaa !20
  %20 = fcmp oeq double %19, 0.000000e+00
  br i1 %20, label %21, label %29

21:                                               ; preds = %18
  %22 = load ptr, ptr %6, align 8, !tbaa !7
  %23 = getelementptr inbounds nuw %struct.KINMemRec, ptr %22, i32 0, i32 1
  %24 = load double, ptr %23, align 8, !tbaa !46
  store double %24, ptr %7, align 8, !tbaa !20
  %25 = load double, ptr %7, align 8, !tbaa !20
  %26 = call double @SUNRpowerR(double noundef %25, double noundef 0x3FD5555555555555)
  %27 = load ptr, ptr %6, align 8, !tbaa !7
  %28 = getelementptr inbounds nuw %struct.KINMemRec, ptr %27, i32 0, i32 4
  store double %26, ptr %28, align 8, !tbaa !48
  br label %33

29:                                               ; preds = %18
  %30 = load double, ptr %5, align 8, !tbaa !20
  %31 = load ptr, ptr %6, align 8, !tbaa !7
  %32 = getelementptr inbounds nuw %struct.KINMemRec, ptr %31, i32 0, i32 4
  store double %30, ptr %32, align 8, !tbaa !48
  br label %33

33:                                               ; preds = %29, %21
  store i32 0, ptr %3, align 4
  store i32 1, ptr %8, align 4
  br label %34

34:                                               ; preds = %33, %16, %11
  call void @llvm.lifetime.end.p0(i64 8, ptr %7) #5
  call void @llvm.lifetime.end.p0(i64 8, ptr %6) #5
  %35 = load i32, ptr %3, align 4
  ret i32 %35
}